target datalayout = "e-m:e-p270:32:32-p271:32:32-p272:64:64-i64:64-i128:128-f80:128-n8:16:32:64-S128"
target triple = "x86_64-pc-linux-gnu"

%"class.icu_77::DisplayOptions::Builder" = type { i32, i32, i32, i32, i32, i32, i32 }
%"class.icu_77::DisplayOptions" = type { i32, i32, i32, i32, i32, i32, i32 }

; Function Attrs: mustprogress nounwind uwtable
define void @_ZN6icu_7714DisplayOptions7BuilderC2ERKS0_(ptr noundef nonnull align 4 dereferenceable(28) %0, ptr noundef nonnull align 4 dereferenceable(28) %1) unnamed_addr #1 align 2 {
  %3 = alloca ptr, align 8
  %4 = alloca ptr, align 8
  store ptr %0, ptr %3, align 8, !tbaa !8
  store ptr %1, ptr %4, align 8, !tbaa !3
  %5 = load ptr, ptr %3, align 8
  %6 = load ptr, ptr %4, align 8, !tbaa !3
  %7 = getelementptr inbounds nuw %"class.icu_77::DisplayOptions", ptr %6, i32 0, i32 0
  %8 = load i32, ptr %7, align 4, !tbaa !19
  %9 = getelementptr inbounds nuw %"class.icu_77::DisplayOptions::Builder", ptr %5, i32 0, i32 0
  store i32 %8, ptr %9, align 4, !tbaa !10
  %10 = load ptr, ptr %4, align 8, !tbaa !3
  %11 = getelementptr inbounds nuw %"class.icu_77::DisplayOptions", ptr %10, i32 0, i32 1
  %12 = load i32, ptr %11, align 4, !tbaa !22
  %13 = getelementptr inbounds nuw %"class.icu_77::DisplayOptions::Builder", ptr %5, i32 0, i32 1
  store i32 %12, ptr %13, align 4, !tbaa !21
  %14 = load ptr, ptr %4, align 8, !tbaa !3
  %15 = getelementptr inbounds nuw %"class.icu_77::DisplayOptions", ptr %14, i32 0, i32 2
  %16 = load i32, ptr %15, align 4, !tbaa !24
  %17 = getelementptr inbounds nuw %"class.icu_77::DisplayOptions::Builder", ptr %5, i32 0, i32 2
  store i32 %16, ptr %17, align 4, !tbaa !23
  %18 = load ptr, ptr %4, align 8, !tbaa !3
  %19 = getelementptr inbounds nuw %"class.icu_77::DisplayOptions", ptr %18, i32 0, i32 3
  %20 = load i32, ptr %19, align 4, !tbaa !26
  %21 = getelementptr inbounds nuw %"class.icu_77::DisplayOptions::Builder", ptr %5, i32 0, i32 3
  store i32 %20, ptr %21, align 4, !tbaa !25
  %22 = load ptr, ptr %4, align 8, !tbaa !3
  %23 = getelementptr inbounds nuw %"class.icu_77::DisplayOptions", ptr %22, i32 0, i32 4
  %24 = load i32, ptr %23, align 4, !tbaa !28
  %25 = getelementptr inbounds nuw %"class.icu_77::DisplayOptions::Builder", ptr %5, i32 0, i32 4
  store i32 %24, ptr %25, align 4, !tbaa !27
  %26 = load ptr, ptr %4, align 8, !tbaa !3
  %27 = getelementptr inbounds nuw %"class.icu_77::DisplayOptions", ptr %26, i32 0, i32 5
  %28 = load i32, ptr %27, align 4, !tbaa !30
  %29 = getelementptr inbounds nuw %"class.icu_77::DisplayOptions::Builder", ptr %5, i32 0, i32 5
  store i32 %28, ptr %29, align 4, !tbaa !29
  %30 = load ptr, ptr %4, align 8, !tbaa !3
  %31 = getelementptr inbounds nuw %"class.icu_77::DisplayOptions", ptr %30, i32 0, i32 6
  %32 = load i32, ptr %31, align 4, !tbaa !32
  %33 = getelementptr inbounds nuw %"class.icu_77::DisplayOptions::Builder", ptr %5, i32 0, i32 6
  store i32 %32, ptr %33, align 4, !tbaa !31
  ret void
}