; Function Attrs: mustprogress nofree norecurse nosync nounwind willreturn memory(argmem: readwrite) uwtable
define void @_ZN6icu_7714DisplayOptions7BuilderC2ERKS0_(ptr noundef nonnull writeonly align 4 captures(none) dereferenceable(28) initializes((0, 28)) %0, ptr noundef nonnull readonly align 4 captures(none) dereferenceable(28) %1) unnamed_addr #1 align 2 {
  %3 = load i32, ptr %1, align 4, !tbaa !14
  store i32 %3, ptr %0, align 4, !tbaa !3
  %4 = getelementptr inbounds nuw i8, ptr %1, i64 4
  %5 = load i32, ptr %4, align 4, !tbaa !17
  %6 = getelementptr inbounds nuw i8, ptr %0, i64 4
  store i32 %5, ptr %6, align 4, !tbaa !16
  %7 = getelementptr inbounds nuw i8, ptr %1, i64 8
  %8 = load i32, ptr %7, align 4, !tbaa !19
  %9 = getelementptr inbounds nuw i8, ptr %0, i64 8
  store i32 %8, ptr %9, align 4, !tbaa !18
  %10 = getelementptr inbounds nuw i8, ptr %1, i64 12
  %11 = load i32, ptr %10, align 4, !tbaa !21
  %12 = getelementptr inbounds nuw i8, ptr %0, i64 12
  store i32 %11, ptr %12, align 4, !tbaa !20
  %13 = getelementptr inbounds nuw i8, ptr %1, i64 16
  %14 = load i32, ptr %13, align 4, !tbaa !23
  %15 = getelementptr inbounds nuw i8, ptr %0, i64 16
  store i32 %14, ptr %15, align 4, !tbaa !22
  %16 = getelementptr inbounds nuw i8, ptr %1, i64 20
  %17 = load i32, ptr %16, align 4, !tbaa !25
  %18 = getelementptr inbounds nuw i8, ptr %0, i64 20
  store i32 %17, ptr %18, align 4, !tbaa !24
  %19 = getelementptr inbounds nuw i8, ptr %1, i64 24
  %20 = load i32, ptr %19, align 4, !tbaa !27
  %21 = getelementptr inbounds nuw i8, ptr %0, i64 24
  store i32 %20, ptr %21, align 4, !tbaa !26
  ret void
}